; Function Attrs: mustprogress uwtable
define dso_local void @_ZN28cmExportInstallFileGeneratorC2EP24cmInstallExportGenerator(ptr noundef nonnull align 8 dereferenceable(496) %0, ptr noundef %1) unnamed_addr #3 align 2 personality ptr @__gxx_personality_v0 {
  tail call void @_ZN21cmExportFileGeneratorC2Ev(ptr noundef nonnull align 8 dereferenceable(341) %0)
  store ptr getelementptr inbounds ({ [30 x ptr] }, ptr @_ZTV28cmExportInstallFileGenerator, i64 0, i32 0, i64 2), ptr %0, align 8
  %3 = getelementptr inbounds i8, ptr %0, i64 344
  store ptr %1, ptr %3, align 8
  %4 = getelementptr inbounds i8, ptr %0, i64 360
  store i32 0, ptr %4, align 8
  %5 = getelementptr inbounds i8, ptr %0, i64 368
  store ptr null, ptr %5, align 8
  %6 = getelementptr inbounds i8, ptr %0, i64 376
  store ptr %4, ptr %6, align 8
  %7 = getelementptr inbounds i8, ptr %0, i64 384
  store ptr %4, ptr %7, align 8
  %8 = getelementptr inbounds i8, ptr %0, i64 392
  store i64 0, ptr %8, align 8
  %9 = getelementptr inbounds i8, ptr %0, i64 408
  store i32 0, ptr %9, align 8
  %10 = getelementptr inbounds i8, ptr %0, i64 416
  store ptr null, ptr %10, align 8
  %11 = getelementptr inbounds i8, ptr %0, i64 424
  store ptr %9, ptr %11, align 8
  %12 = getelementptr inbounds i8, ptr %0, i64 432
  store ptr %9, ptr %12, align 8
  %13 = getelementptr inbounds i8, ptr %0, i64 440
  store i64 0, ptr %13, align 8
  %14 = getelementptr inbounds i8, ptr %0, i64 456
  store i32 0, ptr %14, align 8
  %15 = getelementptr inbounds i8, ptr %0, i64 464
  store ptr null, ptr %15, align 8
  %16 = getelementptr inbounds i8, ptr %0, i64 472
  store ptr %14, ptr %16, align 8
  %17 = getelementptr inbounds i8, ptr %0, i64 480
  store ptr %14, ptr %17, align 8
  %18 = getelementptr inbounds i8, ptr %0, i64 488
  store i64 0, ptr %18, align 8
  ret void
}